target datalayout = "e-m:e-p270:32:32-p271:32:32-p272:64:64-i64:64-f80:128-n8:16:32:64-S128"
target triple = "x86_64-pc-linux-gnu"

@.str = private unnamed_addr constant [3 x i8] c"%d\00", align 1
@.str.1 = private unnamed_addr constant [7 x i8] c"%d%d%d\00", align 1
@.str.2 = private unnamed_addr constant [12 x i8] c"(%d,%d,%d)-\00", align 1
@.str.3 = private unnamed_addr constant [12 x i8] c"(%d,%d,%d)=\00", align 1
@.str.4 = private unnamed_addr constant [6 x i8] c"%.2f\0A\00", align 1

; Function Attrs: noinline nounwind uwtable
define dso_local i32 @main() #0 {
  %1 = alloca i32, align 4
  %2 = alloca [10 x [3 x i32]], align 16
  %3 = alloca i32, align 4
  %4 = alloca i32, align 4
  %5 = alloca i32, align 4
  %6 = alloca i32, align 4
  %7 = alloca i32, align 4
  %8 = alloca i32, align 4
  %9 = alloca i32, align 4
  %10 = alloca i32, align 4
  %11 = alloca double, align 8
  %12 = alloca [45 x [3 x double]], align 16
  store i32 0, i32* %1, align 4
  store i32 0, i32* %10, align 4
  %13 = call i32 (i8*, ...) @__isoc99_scanf(i8* getelementptr inbounds ([3 x i8], [3 x i8]* @.str, i64 0, i64 0), i32* %9)
  store i32 0, i32* %6, align 4
  br label %14

14:                                               ; preds = %35, %0
  %15 = load i32, i32* %6, align 4
  %16 = load i32, i32* %9, align 4
  %17 = icmp slt i32 %15, %16
  br i1 %17, label %18, label %38

18:                                               ; preds = %14
  %19 = call i32 (i8*, ...) @__isoc99_scanf(i8* getelementptr inbounds ([7 x i8], [7 x i8]* @.str.1, i64 0, i64 0), i32* %3, i32* %4, i32* %5)
  %20 = load i32, i32* %3, align 4
  %21 = load i32, i32* %6, align 4
  %22 = sext i32 %21 to i64
  %23 = getelementptr inbounds [10 x [3 x i32]], [10 x [3 x i32]]* %2, i64 0, i64 %22
  %24 = getelementptr inbounds [3 x i32], [3 x i32]* %23, i64 0, i64 0
  store i32 %20, i32* %24, align 4
  %25 = load i32, i32* %4, align 4
  %26 = load i32, i32* %6, align 4
  %27 = sext i32 %26 to i64
  %28 = getelementptr inbounds [10 x [3 x i32]], [10 x [3 x i32]]* %2, i64 0, i64 %27
  %29 = getelementptr inbounds [3 x i32], [3 x i32]* %28, i64 0, i64 1
  store i32 %25, i32* %29, align 4
  %30 = load i32, i32* %5, align 4
  %31 = load i32, i32* %6, align 4
  %32 = sext i32 %31 to i64
  %33 = getelementptr inbounds [10 x [3 x i32]], [10 x [3 x i32]]* %2, i64 0, i64 %32
  %34 = getelementptr inbounds [3 x i32], [3 x i32]* %33, i64 0, i64 2
  store i32 %30, i32* %34, align 4
  br label %35

35:                                               ; preds = %18
  %36 = load i32, i32* %6, align 4
  %37 = add nsw i32 %36, 1
  store i32 %37, i32* %6, align 4
  br label %14

38:                                               ; preds = %14
  store i32 0, i32* %6, align 4
  br label %39

39:                                               ; preds = %115, %38
  %40 = load i32, i32* %6, align 4
  %41 = load i32, i32* %9, align 4
  %42 = icmp slt i32 %40, %41
  br i1 %42, label %43, label %118

43:                                               ; preds = %39
  %44 = load i32, i32* %6, align 4
  %45 = add nsw i32 %44, 1
  store i32 %45, i32* %7, align 4
  br label %46

46:                                               ; preds = %111, %43
  %47 = load i32, i32* %7, align 4
  %48 = load i32, i32* %9, align 4
  %49 = icmp slt i32 %47, %48
  br i1 %49, label %50, label %114

50:                                               ; preds = %46
  %51 = load i32, i32* %6, align 4
  %52 = sext i32 %51 to i64
  %53 = getelementptr inbounds [10 x [3 x i32]], [10 x [3 x i32]]* %2, i64 0, i64 %52
  %54 = getelementptr inbounds [3 x i32], [3 x i32]* %53, i64 0, i64 0
  %55 = load i32, i32* %54, align 4
  %56 = load i32, i32* %7, align 4
  %57 = sext i32 %56 to i64
  %58 = getelementptr inbounds [10 x [3 x i32]], [10 x [3 x i32]]* %2, i64 0, i64 %57
  %59 = getelementptr inbounds [3 x i32], [3 x i32]* %58, i64 0, i64 0
  %60 = load i32, i32* %59, align 4
  %61 = sub nsw i32 %55, %60
  %62 = sitofp i32 %61 to double
  %63 = call double @pow(double %62, double 2.000000e+00) #3
  %64 = load i32, i32* %6, align 4
  %65 = sext i32 %64 to i64
  %66 = getelementptr inbounds [10 x [3 x i32]], [10 x [3 x i32]]* %2, i64 0, i64 %65
  %67 = getelementptr inbounds [3 x i32], [3 x i32]* %66, i64 0, i64 1
  %68 = load i32, i32* %67, align 4
  %69 = load i32, i32* %7, align 4
  %70 = sext i32 %69 to i64
  %71 = getelementptr inbounds [10 x [3 x i32]], [10 x [3 x i32]]* %2, i64 0, i64 %70
  %72 = getelementptr inbounds [3 x i32], [3 x i32]* %71, i64 0, i64 1
  %73 = load i32, i32* %72, align 4
  %74 = sub nsw i32 %68, %73
  %75 = sitofp i32 %74 to double
  %76 = call double @pow(double %75, double 2.000000e+00) #3
  %77 = fadd double %63, %76
  %78 = load i32, i32* %6, align 4
  %79 = sext i32 %78 to i64
  %80 = getelementptr inbounds [10 x [3 x i32]], [10 x [3 x i32]]* %2, i64 0, i64 %79
  %81 = getelementptr inbounds [3 x i32], [3 x i32]* %80, i64 0, i64 2
  %82 = load i32, i32* %81, align 4
  %83 = load i32, i32* %7, align 4
  %84 = sext i32 %83 to i64
  %85 = getelementptr inbounds [10 x [3 x i32]], [10 x [3 x i32]]* %2, i64 0, i64 %84
  %86 = getelementptr inbounds [3 x i32], [3 x i32]* %85, i64 0, i64 2
  %87 = load i32, i32* %86, align 4
  %88 = sub nsw i32 %82, %87
  %89 = sitofp i32 %88 to double
  %90 = call double @pow(double %89, double 2.000000e+00) #3
  %91 = fadd double %77, %90
  %92 = call double @sqrt(double %91) #3
  %93 = load i32, i32* %10, align 4
  %94 = sext i32 %93 to i64
  %95 = getelementptr inbounds [45 x [3 x double]], [45 x [3 x double]]* %12, i64 0, i64 %94
  %96 = getelementptr inbounds [3 x double], [3 x double]* %95, i64 0, i64 0
  store double %92, double* %96, align 8
  %97 = load i32, i32* %6, align 4
  %98 = sitofp i32 %97 to double
  %99 = load i32, i32* %10, align 4
  %100 = sext i32 %99 to i64
  %101 = getelementptr inbounds [45 x [3 x double]], [45 x [3 x double]]* %12, i64 0, i64 %100
  %102 = getelementptr inbounds [3 x double], [3 x double]* %101, i64 0, i64 1
  store double %98, double* %102, align 8
  %103 = load i32, i32* %7, align 4
  %104 = sitofp i32 %103 to double
  %105 = load i32, i32* %10, align 4
  %106 = sext i32 %105 to i64
  %107 = getelementptr inbounds [45 x [3 x double]], [45 x [3 x double]]* %12, i64 0, i64 %106
  %108 = getelementptr inbounds [3 x double], [3 x double]* %107, i64 0, i64 2
  store double %104, double* %108, align 8
  %109 = load i32, i32* %10, align 4
  %110 = add nsw i32 %109, 1
  store i32 %110, i32* %10, align 4
  br label %111

111:                                              ; preds = %50
  %112 = load i32, i32* %7, align 4
  %113 = add nsw i32 %112, 1
  store i32 %113, i32* %7, align 4
  br label %46

114:                                              ; preds = %46
  br label %115

115:                                              ; preds = %114
  %116 = load i32, i32* %6, align 4
  %117 = add nsw i32 %116, 1
  store i32 %117, i32* %6, align 4
  br label %39

118:                                              ; preds = %39
  store i32 0, i32* %6, align 4
  br label %119

119:                                              ; preds = %187, %118
  %120 = load i32, i32* %6, align 4
  %121 = load i32, i32* %10, align 4
  %122 = icmp slt i32 %120, %121
  br i1 %122, label %123, label %190

123:                                              ; preds = %119
  %124 = load i32, i32* %10, align 4
  %125 = sub nsw i32 %124, 1
  store i32 %125, i32* %7, align 4
  br label %126

126:                                              ; preds = %183, %123
  %127 = load i32, i32* %7, align 4
  %128 = load i32, i32* %6, align 4
  %129 = sub nsw i32 %128, 1
  %130 = icmp sgt i32 %127, %129
  br i1 %130, label %131, label %186

131:                                              ; preds = %126
  %132 = load i32, i32* %7, align 4
  %133 = sext i32 %132 to i64
  %134 = getelementptr inbounds [45 x [3 x double]], [45 x [3 x double]]* %12, i64 0, i64 %133
  %135 = getelementptr inbounds [3 x double], [3 x double]* %134, i64 0, i64 0
  %136 = load double, double* %135, align 8
  %137 = load i32, i32* %7, align 4
  %138 = add nsw i32 %137, 1
  %139 = sext i32 %138 to i64
  %140 = getelementptr inbounds [45 x [3 x double]], [45 x [3 x double]]* %12, i64 0, i64 %139
  %141 = getelementptr inbounds [3 x double], [3 x double]* %140, i64 0, i64 0
  %142 = load double, double* %141, align 8
  %143 = fcmp olt double %136, %142
  br i1 %143, label %144, label %182

144:                                              ; preds = %131
  store i32 0, i32* %8, align 4
  br label %145

145:                                              ; preds = %178, %144
  %146 = load i32, i32* %8, align 4
  %147 = icmp slt i32 %146, 3
  br i1 %147, label %148, label %181

148:                                              ; preds = %145
  %149 = load i32, i32* %7, align 4
  %150 = add nsw i32 %149, 1
  %151 = sext i32 %150 to i64
  %152 = getelementptr inbounds [45 x [3 x double]], [45 x [3 x double]]* %12, i64 0, i64 %151
  %153 = load i32, i32* %8, align 4
  %154 = sext i32 %153 to i64
  %155 = getelementptr inbounds [3 x double], [3 x double]* %152, i64 0, i64 %154
  %156 = load double, double* %155, align 8
  store double %156, double* %11, align 8
  %157 = load i32, i32* %7, align 4
  %158 = sext i32 %157 to i64
  %159 = getelementptr inbounds [45 x [3 x double]], [45 x [3 x double]]* %12, i64 0, i64 %158
  %160 = load i32, i32* %8, align 4
  %161 = sext i32 %160 to i64
  %162 = getelementptr inbounds [3 x double], [3 x double]* %159, i64 0, i64 %161
  %163 = load double, double* %162, align 8
  %164 = load i32, i32* %7, align 4
  %165 = add nsw i32 %164, 1
  %166 = sext i32 %165 to i64
  %167 = getelementptr inbounds [45 x [3 x double]], [45 x [3 x double]]* %12, i64 0, i64 %166
  %168 = load i32, i32* %8, align 4
  %169 = sext i32 %168 to i64
  %170 = getelementptr inbounds [3 x double], [3 x double]* %167, i64 0, i64 %169
  store double %163, double* %170, align 8
  %171 = load double, double* %11, align 8
  %172 = load i32, i32* %7, align 4
  %173 = sext i32 %172 to i64
  %174 = getelementptr inbounds [45 x [3 x double]], [45 x [3 x double]]* %12, i64 0, i64 %173
  %175 = load i32, i32* %8, align 4
  %176 = sext i32 %175 to i64
  %177 = getelementptr inbounds [3 x double], [3 x double]* %174, i64 0, i64 %176
  store double %171, double* %177, align 8
  br label %178

178:                                              ; preds = %148
  %179 = load i32, i32* %8, align 4
  %180 = add nsw i32 %179, 1
  store i32 %180, i32* %8, align 4
  br label %145

181:                                              ; preds = %145
  br label %182

182:                                              ; preds = %181, %131
  br label %183

183:                                              ; preds = %182
  %184 = load i32, i32* %7, align 4
  %185 = add nsw i32 %184, -1
  store i32 %185, i32* %7, align 4
  br label %126

186:                                              ; preds = %126
  br label %187

187:                                              ; preds = %186
  %188 = load i32, i32* %6, align 4
  %189 = add nsw i32 %188, 1
  store i32 %189, i32* %6, align 4
  br label %119

190:                                              ; preds = %119
  store i32 0, i32* %6, align 4
  br label %191

191:                                              ; preds = %264, %190
  %192 = load i32, i32* %6, align 4
  %193 = load i32, i32* %10, align 4
  %194 = icmp slt i32 %192, %193
  br i1 %194, label %195, label %267

195:                                              ; preds = %191
  %196 = load i32, i32* %6, align 4
  %197 = sext i32 %196 to i64
  %198 = getelementptr inbounds [45 x [3 x double]], [45 x [3 x double]]* %12, i64 0, i64 %197
  %199 = getelementptr inbounds [3 x double], [3 x double]* %198, i64 0, i64 1
  %200 = load double, double* %199, align 8
  %201 = fptosi double %200 to i32
  %202 = sext i32 %201 to i64
  %203 = getelementptr inbounds [10 x [3 x i32]], [10 x [3 x i32]]* %2, i64 0, i64 %202
  %204 = getelementptr inbounds [3 x i32], [3 x i32]* %203, i64 0, i64 0
  %205 = load i32, i32* %204, align 4
  %206 = load i32, i32* %6, align 4
  %207 = sext i32 %206 to i64
  %208 = getelementptr inbounds [45 x [3 x double]], [45 x [3 x double]]* %12, i64 0, i64 %207
  %209 = getelementptr inbounds [3 x double], [3 x double]* %208, i64 0, i64 1
  %210 = load double, double* %209, align 8
  %211 = fptosi double %210 to i32
  %212 = sext i32 %211 to i64
  %213 = getelementptr inbounds [10 x [3 x i32]], [10 x [3 x i32]]* %2, i64 0, i64 %212
  %214 = getelementptr inbounds [3 x i32], [3 x i32]* %213, i64 0, i64 1
  %215 = load i32, i32* %214, align 4
  %216 = load i32, i32* %6, align 4
  %217 = sext i32 %216 to i64
  %218 = getelementptr inbounds [45 x [3 x double]], [45 x [3 x double]]* %12, i64 0, i64 %217
  %219 = getelementptr inbounds [3 x double], [3 x double]* %218, i64 0, i64 1
  %220 = load double, double* %219, align 8
  %221 = fptosi double %220 to i32
  %222 = sext i32 %221 to i64
  %223 = getelementptr inbounds [10 x [3 x i32]], [10 x [3 x i32]]* %2, i64 0, i64 %222
  %224 = getelementptr inbounds [3 x i32], [3 x i32]* %223, i64 0, i64 2
  %225 = load i32, i32* %224, align 4
  %226 = call i32 (i8*, ...) @printf(i8* getelementptr inbounds ([12 x i8], [12 x i8]* @.str.2, i64 0, i64 0), i32 %205, i32 %215, i32 %225)
  %227 = load i32, i32* %6, align 4
  %228 = sext i32 %227 to i64
  %229 = getelementptr inbounds [45 x [3 x double]], [45 x [3 x double]]* %12, i64 0, i64 %228
  %230 = getelementptr inbounds [3 x double], [3 x double]* %229, i64 0, i64 2
  %231 = load double, double* %230, align 8
  %232 = fptosi double %231 to i32
  %233 = sext i32 %232 to i64
  %234 = getelementptr inbounds [10 x [3 x i32]], [10 x [3 x i32]]* %2, i64 0, i64 %233
  %235 = getelementptr inbounds [3 x i32], [3 x i32]* %234, i64 0, i64 0
  %236 = load i32, i32* %235, align 4
  %237 = load i32, i32* %6, align 4
  %238 = sext i32 %237 to i64
  %239 = getelementptr inbounds [45 x [3 x double]], [45 x [3 x double]]* %12, i64 0, i64 %238
  %240 = getelementptr inbounds [3 x double], [3 x double]* %239, i64 0, i64 2
  %241 = load double, double* %240, align 8
  %242 = fptosi double %241 to i32
  %243 = sext i32 %242 to i64
  %244 = getelementptr inbounds [10 x [3 x i32]], [10 x [3 x i32]]* %2, i64 0, i64 %243
  %245 = getelementptr inbounds [3 x i32], [3 x i32]* %244, i64 0, i64 1
  %246 = load i32, i32* %245, align 4
  %247 = load i32, i32* %6, align 4
  %248 = sext i32 %247 to i64
  %249 = getelementptr inbounds [45 x [3 x double]], [45 x [3 x double]]* %12, i64 0, i64 %248
  %250 = getelementptr inbounds [3 x double], [3 x double]* %249, i64 0, i64 2
  %251 = load double, double* %250, align 8
  %252 = fptosi double %251 to i32
  %253 = sext i32 %252 to i64
  %254 = getelementptr inbounds [10 x [3 x i32]], [10 x [3 x i32]]* %2, i64 0, i64 %253
  %255 = getelementptr inbounds [3 x i32], [3 x i32]* %254, i64 0, i64 2
  %256 = load i32, i32* %255, align 4
  %257 = call i32 (i8*, ...) @printf(i8* getelementptr inbounds ([12 x i8], [12 x i8]* @.str.3, i64 0, i64 0), i32 %236, i32 %246, i32 %256)
  %258 = load i32, i32* %6, align 4
  %259 = sext i32 %258 to i64
  %260 = getelementptr inbounds [45 x [3 x double]], [45 x [3 x double]]* %12, i64 0, i64 %259
  %261 = getelementptr inbounds [3 x double], [3 x double]* %260, i64 0, i64 0
  %262 = load double, double* %261, align 8
  %263 = call i32 (i8*, ...) @printf(i8* getelementptr inbounds ([6 x i8], [6 x i8]* @.str.4, i64 0, i64 0), double %262)
  br label %264

264:                                              ; preds = %195
  %265 = load i32, i32* %6, align 4
  %266 = add nsw i32 %265, 1
  store i32 %266, i32* %6, align 4
  br label %191

267:                                              ; preds = %191
  ret i32 0
}